target datalayout = "e-m:e-p270:32:32-p271:32:32-p272:64:64-i64:64-i128:128-f80:128-n8:16:32:64-S128"
target triple = "x86_64-pc-linux-gnu"

%struct.If_Par_t_ = type { i32, i32, i32, i32, i32, i32, float, float, i32, i32, i32, i32, i32, i32, i32, i32, i32, i32, i32, i32, i32, i32, i32, i32, i32, i32, i32, i32, i32, i32, i32, i32, i32, i32, i32, i32, i32, i32, i32, i32, i32, i32, i32, i32, i32, i32, i32, i32, i32, i32, ptr, i32, float, i32, i32, i32, i32, i32, i32, i32, i32, i32, i32, i32, i32, i32, i32, float, float, float, ptr, ptr, ptr, ptr, ptr, ptr, ptr, ptr, ptr }
%struct.If_LibLut_t_ = type { ptr, i32, i32, [33 x float], [33 x [33 x float]] }
%struct.Sfm_Par_t_ = type { i32, i32, i32, i32, i32, i32, i32, i32, i32, i32, i32, i32, i32, i32, i32, i32, i32, i32, i32, i32, i32, i32, i32, i32, i32, i32, i32, i32, i32, i32, i32 }
%struct.Dar_RefPar_t_ = type { i32, i32, i32, i32, i32, i32, i32, i32 }
%struct.Gia_ManTranStochParam = type { ptr, i32, i32, i32, i32, i32, i32, i32, i32, i32, i32, i32, ptr, i32, i32, i32, ptr, i32, ptr }
%struct.Gia_Man_t_ = type { ptr, ptr, i32, i32, i32, i32, ptr, ptr, i32, i32, i32, ptr, ptr, %struct.Vec_Int_t_, %struct.Vec_Int_t_, i32, i32, i32, %struct.Vec_Int_t_, ptr, ptr, ptr, i32, i32, i32, i32, ptr, ptr, ptr, ptr, ptr, i32, i32, ptr, i32, ptr, ptr, ptr, ptr, ptr, ptr, ptr, ptr, ptr, ptr, ptr, ptr, ptr, ptr, ptr, ptr, ptr, ptr, %struct.Vec_Int_t_, %struct.Vec_Int_t_, ptr, ptr, ptr, ptr, ptr, ptr, ptr, ptr, ptr, ptr, ptr, ptr, ptr, ptr, ptr, ptr, ptr, ptr, ptr, ptr, ptr, i32, float, float, ptr, ptr, i32, ptr, ptr, ptr, ptr, ptr, ptr, ptr, ptr, ptr, ptr, ptr, ptr, ptr, ptr, ptr, i64, i64, ptr, ptr, i32, i32, i32, i32, i32, i32, i32, i32, i32, i32, i32, i32, ptr, ptr, ptr, ptr, ptr, ptr, ptr, ptr, i32, i32, i32, ptr, i32, i32, ptr, ptr, ptr, ptr, ptr, ptr, i32, i32, ptr, %struct.Vec_Int_t_, %struct.Vec_Int_t_, %struct.Vec_Int_t_, ptr, ptr, ptr, i32, i32, i32, i32, ptr, ptr, ptr, ptr, ptr }
%struct.Vec_Int_t_ = type { i32, i32, ptr }

@.str.1 = private unnamed_addr constant [40 x i8] c"*         hop %d        : #nodes = %5d\0A\00", align 1

; Function Attrs: inlinehint nounwind uwtable
define internal i32 @Vec_IntSize(ptr noundef %0) #4 {
  %2 = alloca ptr, align 8
  store ptr %0, ptr %2, align 8, !tbaa !108
  %3 = load ptr, ptr %2, align 8, !tbaa !108
  %4 = getelementptr inbounds nuw %struct.Vec_Int_t_, ptr %3, i32 0, i32 1
  %5 = load i32, ptr %4, align 4, !tbaa !109
  ret i32 %5
}

; Function Attrs: nounwind uwtable
define ptr @Gia_ManTranStochGet(ptr noundef %0) #0 {
  %2 = alloca ptr, align 8
  %3 = alloca ptr, align 8
  %4 = alloca ptr, align 8
  store ptr %0, ptr %2, align 8, !tbaa !10
  call void @llvm.lifetime.start.p0(i64 8, ptr %3) #10
  call void @llvm.lifetime.start.p0(i64 8, ptr %4) #10
  %5 = load ptr, ptr %2, align 8, !tbaa !10
  %6 = call ptr @Abc_NtkToDar(ptr noundef %5, i32 noundef 0, i32 noundef 1)
  store ptr %6, ptr %4, align 8, !tbaa !8
  %7 = load ptr, ptr %4, align 8, !tbaa !8
  %8 = call ptr @Gia_ManFromAig(ptr noundef %7)
  store ptr %8, ptr %3, align 8, !tbaa !3
  %9 = load ptr, ptr %4, align 8, !tbaa !8
  call void @Aig_ManStop(ptr noundef %9)
  %10 = load ptr, ptr %3, align 8, !tbaa !3
  call void @llvm.lifetime.end.p0(i64 8, ptr %4) #10
  call void @llvm.lifetime.end.p0(i64 8, ptr %3) #10
  ret ptr %10
}

; Function Attrs: nounwind uwtable
define void @Gia_ManTranStochMfs2(ptr noundef %0) #0 {
  %2 = alloca ptr, align 8
  %3 = alloca %struct.Sfm_Par_t_, align 4
  %4 = alloca ptr, align 8
  store ptr %0, ptr %2, align 8, !tbaa !10
  call void @llvm.lifetime.start.p0(i64 124, ptr %3) #10
  call void @llvm.lifetime.start.p0(i64 8, ptr %4) #10
  store ptr %3, ptr %4, align 8, !tbaa !24
  %5 = load ptr, ptr %4, align 8, !tbaa !24
  call void @Sfm_ParSetDefault(ptr noundef %5)
  %6 = load ptr, ptr %2, align 8, !tbaa !10
  %7 = load ptr, ptr %4, align 8, !tbaa !24
  %8 = call i32 @Abc_NtkPerformMfs(ptr noundef %6, ptr noundef %7)
  call void @llvm.lifetime.end.p0(i64 8, ptr %4) #10
  call void @llvm.lifetime.end.p0(i64 124, ptr %3) #10
  ret void
}

; Function Attrs: nounwind uwtable
define ptr @Gia_ManTranStochIf(ptr noundef %0) #0 {
  %2 = alloca ptr, align 8
  %3 = alloca %struct.If_Par_t_, align 8
  %4 = alloca ptr, align 8
  store ptr %0, ptr %2, align 8, !tbaa !10
  call void @llvm.lifetime.start.p0(i64 360, ptr %3) #10
  call void @llvm.lifetime.start.p0(i64 8, ptr %4) #10
  store ptr %3, ptr %4, align 8, !tbaa !12
  %5 = load ptr, ptr %4, align 8, !tbaa !12
  call void @If_ManSetDefaultPars(ptr noundef %5)
  %6 = call ptr (...) @Abc_FrameReadLibLut()
  %7 = load ptr, ptr %4, align 8, !tbaa !12
  %8 = getelementptr inbounds nuw %struct.If_Par_t_, ptr %7, i32 0, i32 70
  store ptr %6, ptr %8, align 8, !tbaa !14
  %9 = load ptr, ptr %4, align 8, !tbaa !12
  %10 = getelementptr inbounds nuw %struct.If_Par_t_, ptr %9, i32 0, i32 70
  %11 = load ptr, ptr %10, align 8, !tbaa !14
  %12 = getelementptr inbounds nuw %struct.If_LibLut_t_, ptr %11, i32 0, i32 1
  %13 = load i32, ptr %12, align 8, !tbaa !21
  %14 = load ptr, ptr %4, align 8, !tbaa !12
  %15 = getelementptr inbounds nuw %struct.If_Par_t_, ptr %14, i32 0, i32 0
  store i32 %13, ptr %15, align 8, !tbaa !23
  %16 = load ptr, ptr %2, align 8, !tbaa !10
  %17 = load ptr, ptr %4, align 8, !tbaa !12
  %18 = call ptr @Abc_NtkIf(ptr noundef %16, ptr noundef %17)
  call void @llvm.lifetime.end.p0(i64 8, ptr %4) #10
  call void @llvm.lifetime.end.p0(i64 360, ptr %3) #10
  ret ptr %18
}

; Function Attrs: nounwind uwtable
define void @Gia_ManTranStochUnlock(ptr noundef %0) #0 {
  %2 = alloca ptr, align 8
  store ptr %0, ptr %2, align 8, !tbaa !40
  %3 = load ptr, ptr %2, align 8, !tbaa !40
  %4 = getelementptr inbounds nuw %struct.Gia_ManTranStochParam, ptr %3, i32 0, i32 17
  %5 = load i32, ptr %4, align 8, !tbaa !42
  %6 = icmp ne i32 %5, 0
  br i1 %6, label %7, label %12

7:                                                ; preds = %1
  %8 = load ptr, ptr %2, align 8, !tbaa !40
  %9 = getelementptr inbounds nuw %struct.Gia_ManTranStochParam, ptr %8, i32 0, i32 18
  %10 = load ptr, ptr %9, align 8, !tbaa !44
  %11 = call i32 @pthread_mutex_unlock(ptr noundef %10) #10
  br label %12

12:                                               ; preds = %7, %1
  ret void
}

; Function Attrs: nounwind uwtable
define ptr @Gia_ManTranStochPut(ptr noundef %0) #0 {
  %2 = alloca ptr, align 8
  %3 = alloca ptr, align 8
  %4 = alloca ptr, align 8
  store ptr %0, ptr %2, align 8, !tbaa !3
  call void @llvm.lifetime.start.p0(i64 8, ptr %3) #10
  call void @llvm.lifetime.start.p0(i64 8, ptr %4) #10
  %5 = load ptr, ptr %2, align 8, !tbaa !3
  %6 = call ptr @Gia_ManToAig(ptr noundef %5, i32 noundef 0)
  store ptr %6, ptr %4, align 8, !tbaa !8
  %7 = load ptr, ptr %4, align 8, !tbaa !8
  %8 = call ptr @Abc_NtkFromAigPhase(ptr noundef %7)
  store ptr %8, ptr %3, align 8, !tbaa !10
  %9 = load ptr, ptr %4, align 8, !tbaa !8
  call void @Aig_ManStop(ptr noundef %9)
  %10 = load ptr, ptr %3, align 8, !tbaa !10
  call void @llvm.lifetime.end.p0(i64 8, ptr %4) #10
  call void @llvm.lifetime.end.p0(i64 8, ptr %3) #10
  ret ptr %10
}

; Function Attrs: nounwind uwtable
define void @Gia_ManTranStochLock(ptr noundef %0) #0 {
  %2 = alloca ptr, align 8
  store ptr %0, ptr %2, align 8, !tbaa !40
  %3 = load ptr, ptr %2, align 8, !tbaa !40
  %4 = getelementptr inbounds nuw %struct.Gia_ManTranStochParam, ptr %3, i32 0, i32 17
  %5 = load i32, ptr %4, align 8, !tbaa !42
  %6 = icmp ne i32 %5, 0
  br i1 %6, label %7, label %12

7:                                                ; preds = %1
  %8 = load ptr, ptr %2, align 8, !tbaa !40
  %9 = getelementptr inbounds nuw %struct.Gia_ManTranStochParam, ptr %8, i32 0, i32 18
  %10 = load ptr, ptr %9, align 8, !tbaa !44
  %11 = call i32 @pthread_mutex_lock(ptr noundef %10) #10
  br label %12

12:                                               ; preds = %7, %1
  ret void
}

; Function Attrs: nounwind uwtable
define ptr @Gia_ManTranStochRefactor(ptr noundef %0) #0 {
  %2 = alloca ptr, align 8
  %3 = alloca ptr, align 8
  %4 = alloca ptr, align 8
  %5 = alloca ptr, align 8
  %6 = alloca %struct.Dar_RefPar_t_, align 4
  %7 = alloca ptr, align 8
  store ptr %0, ptr %2, align 8, !tbaa !3
  call void @llvm.lifetime.start.p0(i64 8, ptr %3) #10
  call void @llvm.lifetime.start.p0(i64 8, ptr %4) #10
  call void @llvm.lifetime.start.p0(i64 8, ptr %5) #10
  call void @llvm.lifetime.start.p0(i64 32, ptr %6) #10
  call void @llvm.lifetime.start.p0(i64 8, ptr %7) #10
  store ptr %6, ptr %7, align 8, !tbaa !36
  %8 = load ptr, ptr %7, align 8, !tbaa !36
  call void @Dar_ManDefaultRefParams(ptr noundef %8)
  %9 = load ptr, ptr %7, align 8, !tbaa !36
  %10 = getelementptr inbounds nuw %struct.Dar_RefPar_t_, ptr %9, i32 0, i32 5
  store i32 1, ptr %10, align 4, !tbaa !38
  %11 = load ptr, ptr %2, align 8, !tbaa !3
  %12 = call ptr @Gia_ManToAig(ptr noundef %11, i32 noundef 0)
  store ptr %12, ptr %4, align 8, !tbaa !8
  %13 = load ptr, ptr %4, align 8, !tbaa !8
  %14 = load ptr, ptr %7, align 8, !tbaa !36
  %15 = call i32 @Dar_ManRefactor(ptr noundef %13, ptr noundef %14)
  %16 = load ptr, ptr %4, align 8, !tbaa !8
  store ptr %16, ptr %5, align 8, !tbaa !8
  %17 = call ptr @Aig_ManDupDfs(ptr noundef %16)
  store ptr %17, ptr %4, align 8, !tbaa !8
  %18 = load ptr, ptr %5, align 8, !tbaa !8
  call void @Aig_ManStop(ptr noundef %18)
  %19 = load ptr, ptr %4, align 8, !tbaa !8
  %20 = call ptr @Gia_ManFromAig(ptr noundef %19)
  store ptr %20, ptr %3, align 8, !tbaa !3
  %21 = load ptr, ptr %4, align 8, !tbaa !8
  call void @Aig_ManStop(ptr noundef %21)
  %22 = load ptr, ptr %3, align 8, !tbaa !3
  call void @llvm.lifetime.end.p0(i64 8, ptr %7) #10
  call void @llvm.lifetime.end.p0(i64 32, ptr %6) #10
  call void @llvm.lifetime.end.p0(i64 8, ptr %5) #10
  call void @llvm.lifetime.end.p0(i64 8, ptr %4) #10
  call void @llvm.lifetime.end.p0(i64 8, ptr %3) #10
  ret ptr %22
}

; Function Attrs: inlinehint nounwind uwtable
define internal i32 @Gia_ManAndNum(ptr noundef %0) #4 {
  %2 = alloca ptr, align 8
  store ptr %0, ptr %2, align 8, !tbaa !3
  %3 = load ptr, ptr %2, align 8, !tbaa !3
  %4 = getelementptr inbounds nuw %struct.Gia_Man_t_, ptr %3, i32 0, i32 4
  %5 = load i32, ptr %4, align 8, !tbaa !56
  %6 = load ptr, ptr %2, align 8, !tbaa !3
  %7 = getelementptr inbounds nuw %struct.Gia_Man_t_, ptr %6, i32 0, i32 11
  %8 = load ptr, ptr %7, align 8, !tbaa !73
  %9 = call i32 @Vec_IntSize(ptr noundef %8)
  %10 = sub nsw i32 %5, %9
  %11 = load ptr, ptr %2, align 8, !tbaa !3
  %12 = getelementptr inbounds nuw %struct.Gia_Man_t_, ptr %11, i32 0, i32 12
  %13 = load ptr, ptr %12, align 8, !tbaa !74
  %14 = call i32 @Vec_IntSize(ptr noundef %13)
  %15 = sub nsw i32 %10, %14
  %16 = sub nsw i32 %15, 1
  ret i32 %16
}

; Function Attrs: nounwind uwtable
define ptr @Gia_ManTranStochOpt2(ptr noundef %0) #0 {
  %2 = alloca ptr, align 8
  %3 = alloca i32, align 4
  %4 = alloca i32, align 4
  %5 = alloca ptr, align 8
  %6 = alloca ptr, align 8
  %7 = alloca ptr, align 8
  %8 = alloca ptr, align 8
  %9 = alloca ptr, align 8
  store ptr %0, ptr %2, align 8, !tbaa !40
  call void @llvm.lifetime.start.p0(i64 4, ptr %3) #10
  call void @llvm.lifetime.start.p0(i64 4, ptr %4) #10
  %10 = load ptr, ptr %2, align 8, !tbaa !40
  %11 = getelementptr inbounds nuw %struct.Gia_ManTranStochParam, ptr %10, i32 0, i32 0
  %12 = load ptr, ptr %11, align 8, !tbaa !75
  %13 = call i32 @Gia_ManAndNum(ptr noundef %12)
  store i32 %13, ptr %4, align 4, !tbaa !45
  call void @llvm.lifetime.start.p0(i64 8, ptr %5) #10
  call void @llvm.lifetime.start.p0(i64 8, ptr %6) #10
  call void @llvm.lifetime.start.p0(i64 8, ptr %7) #10
  call void @llvm.lifetime.start.p0(i64 8, ptr %8) #10
  call void @llvm.lifetime.start.p0(i64 8, ptr %9) #10
  %14 = load ptr, ptr %2, align 8, !tbaa !40
  %15 = getelementptr inbounds nuw %struct.Gia_ManTranStochParam, ptr %14, i32 0, i32 0
  %16 = load ptr, ptr %15, align 8, !tbaa !75
  %17 = call ptr @Gia_ManDup(ptr noundef %16)
  store ptr %17, ptr %5, align 8, !tbaa !3
  %18 = load ptr, ptr %5, align 8, !tbaa !3
  %19 = call ptr @Gia_ManDup(ptr noundef %18)
  store ptr %19, ptr %6, align 8, !tbaa !3
  store i32 0, ptr %3, align 4, !tbaa !45
  br label %20

20:                                               ; preds = %91, %1
  br i1 true, label %21, label %94

21:                                               ; preds = %20
  %22 = load ptr, ptr %2, align 8, !tbaa !40
  %23 = load ptr, ptr %5, align 8, !tbaa !3
  %24 = call ptr @Gia_ManTranStochOpt1(ptr noundef %22, ptr noundef %23)
  store ptr %24, ptr %7, align 8, !tbaa !3
  %25 = load ptr, ptr %5, align 8, !tbaa !3
  call void @Gia_ManStop(ptr noundef %25)
  %26 = load ptr, ptr %7, align 8, !tbaa !3
  store ptr %26, ptr %5, align 8, !tbaa !3
  %27 = load i32, ptr %4, align 4, !tbaa !45
  %28 = load ptr, ptr %5, align 8, !tbaa !3
  %29 = call i32 @Gia_ManAndNum(ptr noundef %28)
  %30 = icmp sgt i32 %27, %29
  br i1 %30, label %31, label %43

31:                                               ; preds = %21
  %32 = load ptr, ptr %5, align 8, !tbaa !3
  %33 = call i32 @Gia_ManAndNum(ptr noundef %32)
  store i32 %33, ptr %4, align 4, !tbaa !45
  %34 = load ptr, ptr %6, align 8, !tbaa !3
  call void @Gia_ManStop(ptr noundef %34)
  %35 = load ptr, ptr %5, align 8, !tbaa !3
  %36 = call ptr @Gia_ManDup(ptr noundef %35)
  store ptr %36, ptr %6, align 8, !tbaa !3
  %37 = load ptr, ptr %2, align 8, !tbaa !40
  %38 = getelementptr inbounds nuw %struct.Gia_ManTranStochParam, ptr %37, i32 0, i32 7
  %39 = load i32, ptr %38, align 8, !tbaa !76
  %40 = icmp ne i32 %39, 0
  br i1 %40, label %41, label %42

41:                                               ; preds = %31
  store i32 0, ptr %3, align 4, !tbaa !45
  br label %42

42:                                               ; preds = %41, %31
  br label %43

43:                                               ; preds = %42, %21
  %44 = load i32, ptr %3, align 4, !tbaa !45
  %45 = load ptr, ptr %2, align 8, !tbaa !40
  %46 = getelementptr inbounds nuw %struct.Gia_ManTranStochParam, ptr %45, i32 0, i32 2
  %47 = load i32, ptr %46, align 4, !tbaa !77
  %48 = icmp eq i32 %44, %47
  br i1 %48, label %49, label %50

49:                                               ; preds = %43
  br label %94

50:                                               ; preds = %43
  %51 = load ptr, ptr %2, align 8, !tbaa !40
  %52 = getelementptr inbounds nuw %struct.Gia_ManTranStochParam, ptr %51, i32 0, i32 8
  %53 = load i32, ptr %52, align 4, !tbaa !78
  %54 = icmp ne i32 %53, 0
  br i1 %54, label %55, label %60

55:                                               ; preds = %50
  %56 = load ptr, ptr %5, align 8, !tbaa !3
  %57 = call ptr @Gia_ManTranStochRefactor(ptr noundef %56)
  store ptr %57, ptr %7, align 8, !tbaa !3
  %58 = load ptr, ptr %5, align 8, !tbaa !3
  call void @Gia_ManStop(ptr noundef %58)
  %59 = load ptr, ptr %7, align 8, !tbaa !3
  store ptr %59, ptr %5, align 8, !tbaa !3
  br label %80

60:                                               ; preds = %50
  %61 = load ptr, ptr %2, align 8, !tbaa !40
  call void @Gia_ManTranStochLock(ptr noundef %61)
  %62 = load ptr, ptr %5, align 8, !tbaa !3
  %63 = call ptr @Gia_ManTranStochPut(ptr noundef %62)
  store ptr %63, ptr %8, align 8, !tbaa !10
  %64 = load ptr, ptr %2, align 8, !tbaa !40
  call void @Gia_ManTranStochUnlock(ptr noundef %64)
  %65 = load ptr, ptr %5, align 8, !tbaa !3
  call void @Gia_ManStop(ptr noundef %65)
  %66 = load ptr, ptr %8, align 8, !tbaa !10
  %67 = call ptr @Gia_ManTranStochIf(ptr noundef %66)
  store ptr %67, ptr %9, align 8, !tbaa !10
  %68 = load ptr, ptr %8, align 8, !tbaa !10
  call void @Abc_NtkDelete(ptr noundef %68)
  %69 = load ptr, ptr %9, align 8, !tbaa !10
  store ptr %69, ptr %8, align 8, !tbaa !10
  %70 = load ptr, ptr %8, align 8, !tbaa !10
  call void @Gia_ManTranStochMfs2(ptr noundef %70)
  %71 = load ptr, ptr %2, align 8, !tbaa !40
  call void @Gia_ManTranStochLock(ptr noundef %71)
  %72 = load ptr, ptr %8, align 8, !tbaa !10
  %73 = call ptr @Abc_NtkStrash(ptr noundef %72, i32 noundef 0, i32 noundef 1, i32 noundef 0)
  store ptr %73, ptr %9, align 8, !tbaa !10
  %74 = load ptr, ptr %2, align 8, !tbaa !40
  call void @Gia_ManTranStochUnlock(ptr noundef %74)
  %75 = load ptr, ptr %8, align 8, !tbaa !10
  call void @Abc_NtkDelete(ptr noundef %75)
  %76 = load ptr, ptr %9, align 8, !tbaa !10
  store ptr %76, ptr %8, align 8, !tbaa !10
  %77 = load ptr, ptr %8, align 8, !tbaa !10
  %78 = call ptr @Gia_ManTranStochGet(ptr noundef %77)
  store ptr %78, ptr %5, align 8, !tbaa !3
  %79 = load ptr, ptr %8, align 8, !tbaa !10
  call void @Abc_NtkDelete(ptr noundef %79)
  br label %80

80:                                               ; preds = %60, %55
  %81 = load ptr, ptr %2, align 8, !tbaa !40
  %82 = getelementptr inbounds nuw %struct.Gia_ManTranStochParam, ptr %81, i32 0, i32 13
  %83 = load i32, ptr %82, align 8, !tbaa !52
  %84 = icmp ne i32 %83, 0
  br i1 %84, label %85, label %90

85:                                               ; preds = %80
  %86 = load i32, ptr %3, align 4, !tbaa !45
  %87 = load ptr, ptr %5, align 8, !tbaa !3
  %88 = call i32 @Gia_ManAndNum(ptr noundef %87)
  %89 = call i32 (ptr, ...) @printf(ptr noundef @.str.1, i32 noundef %86, i32 noundef %88)
  br label %90

90:                                               ; preds = %85, %80
  br label %91

91:                                               ; preds = %90
  %92 = load i32, ptr %3, align 4, !tbaa !45
  %93 = add nsw i32 %92, 1
  store i32 %93, ptr %3, align 4, !tbaa !45
  br label %20

94:                                               ; preds = %49, %20
  %95 = load ptr, ptr %5, align 8, !tbaa !3
  call void @Gia_ManStop(ptr noundef %95)
  %96 = load ptr, ptr %6, align 8, !tbaa !3
  call void @llvm.lifetime.end.p0(i64 8, ptr %9) #10
  call void @llvm.lifetime.end.p0(i64 8, ptr %8) #10
  call void @llvm.lifetime.end.p0(i64 8, ptr %7) #10
  call void @llvm.lifetime.end.p0(i64 8, ptr %6) #10
  call void @llvm.lifetime.end.p0(i64 8, ptr %5) #10
  call void @llvm.lifetime.end.p0(i64 4, ptr %4) #10
  call void @llvm.lifetime.end.p0(i64 4, ptr %3) #10
  ret ptr %96
}