; Function Attrs: nounwind uwtable
define ptr @Gia_ManTranStochOpt2(ptr noundef captures(none) %0) local_unnamed_addr #0 {
  %2 = alloca %struct.Sfm_Par_t_, align 4
  %3 = alloca %struct.If_Par_t_, align 8
  %4 = alloca %struct.Dar_RefPar_t_, align 4
  %5 = load ptr, ptr %0, align 8, !tbaa !60
  %6 = getelementptr inbounds nuw i8, ptr %5, i64 24
  %7 = load i32, ptr %6, align 8, !tbaa !30
  %8 = getelementptr inbounds nuw i8, ptr %5, i64 64
  %9 = load ptr, ptr %8, align 8, !tbaa !47
  %10 = getelementptr i8, ptr %9, i64 4
  %.val.i = load i32, ptr %10, align 4, !tbaa !48
  %11 = getelementptr inbounds nuw i8, ptr %5, i64 72
  %12 = load ptr, ptr %11, align 8, !tbaa !49
  %13 = getelementptr i8, ptr %12, i64 4
  %.val3.i = load i32, ptr %13, align 4, !tbaa !48
  %14 = add i32 %.val3.i, %.val.i
  %15 = xor i32 %14, -1
  %16 = add i32 %7, %15
  %17 = tail call ptr @Gia_ManDup(ptr noundef %5) #14
  %18 = tail call ptr @Gia_ManDup(ptr noundef %17) #14
  %19 = getelementptr inbounds nuw i8, ptr %0, i64 32
  %20 = getelementptr inbounds nuw i8, ptr %0, i64 12
  %21 = getelementptr inbounds nuw i8, ptr %0, i64 36
  %22 = getelementptr inbounds nuw i8, ptr %4, i64 20
  %23 = getelementptr inbounds nuw i8, ptr %0, i64 88
  %24 = getelementptr inbounds nuw i8, ptr %0, i64 96
  %25 = getelementptr inbounds nuw i8, ptr %3, i64 288
  %26 = getelementptr inbounds nuw i8, ptr %0, i64 64
  br label %27

27:                                               ; preds = %96, %1
  %.043 = phi ptr [ %17, %1 ], [ %.144, %96 ]
  %.041 = phi ptr [ %18, %1 ], [ %.142, %96 ]
  %.039 = phi i32 [ %16, %1 ], [ %.140, %96 ]
  %.0 = phi i32 [ 0, %1 ], [ %97, %96 ]
  %28 = call ptr @Gia_ManTranStochOpt1(ptr noundef nonnull %0, ptr noundef %.043)
  call void @Gia_ManStop(ptr noundef %.043) #14
  %29 = getelementptr inbounds nuw i8, ptr %28, i64 24
  %30 = load i32, ptr %29, align 8, !tbaa !30
  %31 = getelementptr inbounds nuw i8, ptr %28, i64 64
  %32 = load ptr, ptr %31, align 8, !tbaa !47
  %33 = getelementptr i8, ptr %32, i64 4
  %.val.i47 = load i32, ptr %33, align 4, !tbaa !48
  %34 = getelementptr inbounds nuw i8, ptr %28, i64 72
  %35 = load ptr, ptr %34, align 8, !tbaa !49
  %36 = getelementptr i8, ptr %35, i64 4
  %.val3.i48 = load i32, ptr %36, align 4, !tbaa !48
  %37 = add i32 %.val3.i48, %.val.i47
  %38 = xor i32 %37, -1
  %39 = add i32 %30, %38
  %40 = icmp sgt i32 %.039, %39
  br i1 %40, label %41, label %44

41:                                               ; preds = %27
  call void @Gia_ManStop(ptr noundef %.041) #14
  %42 = call ptr @Gia_ManDup(ptr noundef nonnull %28) #14
  %43 = load i32, ptr %19, align 8, !tbaa !61
  %.not = icmp eq i32 %43, 0
  %spec.select = select i1 %.not, i32 %.0, i32 0
  br label %44

44:                                               ; preds = %41, %27
  %.142 = phi ptr [ %.041, %27 ], [ %42, %41 ]
  %.140 = phi i32 [ %.039, %27 ], [ %39, %41 ]
  %.1 = phi i32 [ %.0, %27 ], [ %spec.select, %41 ]
  %45 = load i32, ptr %20, align 4, !tbaa !62
  %46 = icmp eq i32 %.1, %45
  br i1 %46, label %98, label %47

47:                                               ; preds = %44
  %48 = load i32, ptr %21, align 4, !tbaa !63
  %.not45 = icmp eq i32 %48, 0
  br i1 %.not45, label %54, label %49

49:                                               ; preds = %47
  call void @llvm.lifetime.start.p0(i64 32, ptr nonnull %4) #14
  call void @Dar_ManDefaultRefParams(ptr noundef nonnull %4) #14
  store i32 1, ptr %22, align 4, !tbaa !24
  %50 = call ptr @Gia_ManToAig(ptr noundef nonnull %28, i32 noundef 0) #14
  %51 = call i32 @Dar_ManRefactor(ptr noundef %50, ptr noundef nonnull %4) #14
  %52 = call ptr @Aig_ManDupDfs(ptr noundef %50) #14
  call void @Aig_ManStop(ptr noundef %50) #14
  %53 = call ptr @Gia_ManFromAig(ptr noundef %52) #14
  call void @Aig_ManStop(ptr noundef %52) #14
  call void @llvm.lifetime.end.p0(i64 32, ptr nonnull %4) #14
  call void @Gia_ManStop(ptr noundef nonnull %28) #14
  br label %81

54:                                               ; preds = %47
  %55 = load i32, ptr %23, align 8, !tbaa !26
  %.not.i = icmp eq i32 %55, 0
  br i1 %.not.i, label %Gia_ManTranStochLock.exit, label %56

56:                                               ; preds = %54
  %57 = load ptr, ptr %24, align 8, !tbaa !29
  %58 = call i32 @pthread_mutex_lock(ptr noundef %57) #14
  br label %Gia_ManTranStochLock.exit

Gia_ManTranStochLock.exit:                        ; preds = %54, %56
  %59 = call ptr @Gia_ManToAig(ptr noundef nonnull %28, i32 noundef 0) #14
  %60 = call ptr @Abc_NtkFromAigPhase(ptr noundef %59) #14
  call void @Aig_ManStop(ptr noundef %59) #14
  %61 = load i32, ptr %23, align 8, !tbaa !26
  %.not.i51 = icmp eq i32 %61, 0
  br i1 %.not.i51, label %Gia_ManTranStochUnlock.exit, label %62

62:                                               ; preds = %Gia_ManTranStochLock.exit
  %63 = load ptr, ptr %24, align 8, !tbaa !29
  %64 = call i32 @pthread_mutex_unlock(ptr noundef %63) #14
  br label %Gia_ManTranStochUnlock.exit

Gia_ManTranStochUnlock.exit:                      ; preds = %Gia_ManTranStochLock.exit, %62
  call void @Gia_ManStop(ptr noundef nonnull %28) #14
  call void @llvm.lifetime.start.p0(i64 360, ptr nonnull %3) #14
  call void @If_ManSetDefaultPars(ptr noundef nonnull %3) #14
  %65 = call ptr (...) @Abc_FrameReadLibLut() #14
  store ptr %65, ptr %25, align 8, !tbaa !3
  %66 = getelementptr inbounds nuw i8, ptr %65, i64 8
  %67 = load i32, ptr %66, align 8, !tbaa !13
  store i32 %67, ptr %3, align 8, !tbaa !15
  %68 = call ptr @Abc_NtkIf(ptr noundef %60, ptr noundef nonnull %3) #14
  call void @llvm.lifetime.end.p0(i64 360, ptr nonnull %3) #14
  call void @Abc_NtkDelete(ptr noundef %60) #14
  call void @llvm.lifetime.start.p0(i64 124, ptr nonnull %2) #14
  call void @Sfm_ParSetDefault(ptr noundef nonnull %2) #14
  %69 = call i32 @Abc_NtkPerformMfs(ptr noundef %68, ptr noundef nonnull %2) #14
  call void @llvm.lifetime.end.p0(i64 124, ptr nonnull %2) #14
  %70 = load i32, ptr %23, align 8, !tbaa !26
  %.not.i52 = icmp eq i32 %70, 0
  br i1 %.not.i52, label %Gia_ManTranStochLock.exit53, label %71

71:                                               ; preds = %Gia_ManTranStochUnlock.exit
  %72 = load ptr, ptr %24, align 8, !tbaa !29
  %73 = call i32 @pthread_mutex_lock(ptr noundef %72) #14
  br label %Gia_ManTranStochLock.exit53

Gia_ManTranStochLock.exit53:                      ; preds = %Gia_ManTranStochUnlock.exit, %71
  %74 = call ptr @Abc_NtkStrash(ptr noundef %68, i32 noundef 0, i32 noundef 1, i32 noundef 0) #14
  %75 = load i32, ptr %23, align 8, !tbaa !26
  %.not.i54 = icmp eq i32 %75, 0
  br i1 %.not.i54, label %Gia_ManTranStochUnlock.exit55, label %76

76:                                               ; preds = %Gia_ManTranStochLock.exit53
  %77 = load ptr, ptr %24, align 8, !tbaa !29
  %78 = call i32 @pthread_mutex_unlock(ptr noundef %77) #14
  br label %Gia_ManTranStochUnlock.exit55

Gia_ManTranStochUnlock.exit55:                    ; preds = %Gia_ManTranStochLock.exit53, %76
  call void @Abc_NtkDelete(ptr noundef %68) #14
  %79 = call ptr @Abc_NtkToDar(ptr noundef %74, i32 noundef 0, i32 noundef 1) #14
  %80 = call ptr @Gia_ManFromAig(ptr noundef %79) #14
  call void @Aig_ManStop(ptr noundef %79) #14
  call void @Abc_NtkDelete(ptr noundef %74) #14
  br label %81

81:                                               ; preds = %Gia_ManTranStochUnlock.exit55, %49
  %.144 = phi ptr [ %53, %49 ], [ %80, %Gia_ManTranStochUnlock.exit55 ]
  %82 = load i32, ptr %26, align 8, !tbaa !56
  %.not46 = icmp eq i32 %82, 0
  br i1 %.not46, label %96, label %83

83:                                               ; preds = %81
  %84 = getelementptr inbounds nuw i8, ptr %.144, i64 24
  %85 = load i32, ptr %84, align 8, !tbaa !30
  %86 = getelementptr inbounds nuw i8, ptr %.144, i64 64
  %87 = load ptr, ptr %86, align 8, !tbaa !47
  %88 = getelementptr i8, ptr %87, i64 4
  %.val.i56 = load i32, ptr %88, align 4, !tbaa !48
  %89 = getelementptr inbounds nuw i8, ptr %.144, i64 72
  %90 = load ptr, ptr %89, align 8, !tbaa !49
  %91 = getelementptr i8, ptr %90, i64 4
  %.val3.i57 = load i32, ptr %91, align 4, !tbaa !48
  %92 = add i32 %.val3.i57, %.val.i56
  %93 = xor i32 %92, -1
  %94 = add i32 %85, %93
  %95 = call i32 (ptr, ...) @printf(ptr noundef nonnull dereferenceable(1) @.str.1, i32 noundef %.1, i32 noundef %94)
  br label %96

96:                                               ; preds = %81, %83
  %97 = add nsw i32 %.1, 1
  br label %27

98:                                               ; preds = %44
  call void @Gia_ManStop(ptr noundef nonnull %28) #14
  ret ptr %.142
}